ccopy_reg
_reconstructor
p0
(c__main__
account
p1
c__builtin__
object
p2
Ntp3
Rp4
(dp5
S'acno'
p6
I1001
sS'type'
p7
S'S'
p8
sS'name'
p9
S'Younus'
p10
sS'deposit'
p11
I10100
sb.ccopy_reg
_reconstructor
p0
(c__main__
account
p1
c__builtin__
object
p2
Ntp3
Rp4
(dp5
S'acno'
p6
I1002
sS'type'
p7
S'C'
p8
sS'name'
p9
S'Mrinal'
p10
sS'deposit'
p11
I2000
sb.